target datalayout = "e-m:e-p270:32:32-p271:32:32-p272:64:64-i64:64-i128:128-f80:128-n8:16:32:64-S128"
target triple = "x86_64-pc-linux-gnu"

%struct.__va_list_tag = type { i32, i32, ptr, ptr }

@stderr = external global ptr, align 8
@.str.8 = private unnamed_addr constant [8 x i8] c"%s:%d: \00", align 1
@.str.9 = private unnamed_addr constant [2 x i8] c"\0A\00", align 1

; Function Attrs: alwaysinline
define internal i32 @vfprintf.inline(ptr noalias %0, ptr noalias %1, ptr %2) #11 {
  %4 = alloca ptr, align 8
  %5 = alloca ptr, align 8
  %6 = alloca ptr, align 8
  store ptr %0, ptr %4, align 8
  store ptr %1, ptr %5, align 8
  store ptr %2, ptr %6, align 8
  %7 = load ptr, ptr %4, align 8
  %8 = load ptr, ptr %5, align 8
  %9 = load ptr, ptr %6, align 8
  %10 = call i32 @__vfprintf_chk(ptr noundef %7, i32 noundef 2, ptr noundef %8, ptr noundef %9)
  ret i32 %10
}

; Function Attrs: null_pointer_is_valid sspstrong uwtable
define hidden void @ErrorMsg(ptr noundef %0, i32 noundef %1, ptr noundef %2, ...) #0 {
  %4 = alloca ptr, align 8
  %5 = alloca i32, align 4
  %6 = alloca ptr, align 8
  %7 = alloca [1 x %struct.__va_list_tag], align 16
  store ptr %0, ptr %4, align 8
  store i32 %1, ptr %5, align 4
  store ptr %2, ptr %6, align 8
  call void @llvm.lifetime.start.p0(i64 24, ptr %7) #18
  %8 = load ptr, ptr @stderr, align 8
  %9 = load ptr, ptr %4, align 8
  %10 = load i32, ptr %5, align 4
  %11 = call i32 (ptr, i32, ptr, ...) @__fprintf_chk(ptr noundef %8, i32 noundef 2, ptr noundef @.str.8, ptr noundef %9, i32 noundef %10)
  %12 = getelementptr inbounds [1 x %struct.__va_list_tag], ptr %7, i64 0, i64 0
  call void @llvm.va_start.p0(ptr %12)
  %13 = load ptr, ptr @stderr, align 8
  %14 = load ptr, ptr %6, align 8
  %15 = getelementptr inbounds [1 x %struct.__va_list_tag], ptr %7, i64 0, i64 0
  %16 = call i32 @vfprintf.inline(ptr noundef %13, ptr noundef %14, ptr noundef %15) #18
  %17 = getelementptr inbounds [1 x %struct.__va_list_tag], ptr %7, i64 0, i64 0
  call void @llvm.va_end.p0(ptr %17)
  %18 = load ptr, ptr @stderr, align 8
  %19 = call i32 (ptr, i32, ptr, ...) @__fprintf_chk(ptr noundef %18, i32 noundef 2, ptr noundef @.str.9)
  call void @llvm.lifetime.end.p0(i64 24, ptr %7) #18
  ret void
}