; Function Attrs: null_pointer_is_valid sspstrong uwtable
define hidden void @ErrorMsg(ptr noundef %0, i32 noundef %1, ptr noundef %2, ...) local_unnamed_addr #0 {
  %4 = alloca [1 x %struct.__va_list_tag], align 16
  call void @llvm.lifetime.start.p0(i64 24, ptr nonnull %4) #42
  %5 = load ptr, ptr @stderr, align 8
  %6 = tail call i32 (ptr, i32, ptr, ...) @__fprintf_chk(ptr noundef %5, i32 noundef 2, ptr noundef nonnull @.str.8, ptr noundef %0, i32 noundef %1)
  call void @llvm.va_start.p0(ptr nonnull %4)
  %7 = load ptr, ptr @stderr, align 8
  %8 = call i32 @__vfprintf_chk(ptr noundef %7, i32 noundef 2, ptr noundef %2, ptr noundef nonnull %4) #42
  call void @llvm.va_end.p0(ptr nonnull %4)
  %9 = load ptr, ptr @stderr, align 8
  %10 = call i32 (ptr, i32, ptr, ...) @__fprintf_chk(ptr noundef %9, i32 noundef 2, ptr noundef nonnull @.str.9)
  call void @llvm.lifetime.end.p0(i64 24, ptr nonnull %4) #42
  ret void
}